target datalayout = "e-m:e-p270:32:32-p271:32:32-p272:64:64-i64:64-i128:128-f80:128-n8:16:32:64-S128"
target triple = "x86_64-pc-linux-gnu"

@hf_cigi3_environmental_region_control_region_id = internal global i32 0, align 4
@hf_cigi3_environmental_region_control_region_state = internal global i32 0, align 4
@hf_cigi3_environmental_region_control_merge_weather = internal global i32 0, align 4
@hf_cigi3_environmental_region_control_merge_aerosol = internal global i32 0, align 4
@hf_cigi3_environmental_region_control_merge_maritime = internal global i32 0, align 4
@hf_cigi3_environmental_region_control_merge_terrestrial = internal global i32 0, align 4
@hf_cigi3_environmental_region_control_lat = internal global i32 0, align 4
@hf_cigi3_environmental_region_control_lon = internal global i32 0, align 4
@hf_cigi3_environmental_region_control_size_x = internal global i32 0, align 4
@hf_cigi3_environmental_region_control_size_y = internal global i32 0, align 4
@hf_cigi3_environmental_region_control_corner_radius = internal global i32 0, align 4
@hf_cigi3_environmental_region_control_rotation = internal global i32 0, align 4
@hf_cigi3_environmental_region_control_transition_perimeter = internal global i32 0, align 4
@cigi_byte_order = internal global i32 0, align 4

; Function Attrs: null_pointer_is_valid sspstrong uwtable
define internal i32 @cigi4_add_environmental_region_control(ptr noundef %0, ptr noundef %1, ptr noundef %2, ptr noundef %3) #0 {
  %5 = alloca ptr, align 8
  %6 = alloca ptr, align 8
  %7 = alloca ptr, align 8
  %8 = alloca ptr, align 8
  %9 = alloca i32, align 4
  store ptr %0, ptr %5, align 8
  store ptr %1, ptr %6, align 8
  store ptr %2, ptr %7, align 8
  store ptr %3, ptr %8, align 8
  call void @llvm.lifetime.start.p0(i64 4, ptr %9) #5
  store i32 0, ptr %9, align 4
  %10 = load ptr, ptr %7, align 8
  %11 = load i32, ptr @hf_cigi3_environmental_region_control_region_state, align 4
  %12 = load ptr, ptr %5, align 8
  %13 = load i32, ptr %9, align 4
  %14 = load i32, ptr @cigi_byte_order, align 4
  %15 = call ptr @proto_tree_add_item(ptr noundef %10, i32 noundef %11, ptr noundef %12, i32 noundef %13, i32 noundef 1, i32 noundef %14)
  %16 = load ptr, ptr %7, align 8
  %17 = load i32, ptr @hf_cigi3_environmental_region_control_merge_weather, align 4
  %18 = load ptr, ptr %5, align 8
  %19 = load i32, ptr %9, align 4
  %20 = load i32, ptr @cigi_byte_order, align 4
  %21 = call ptr @proto_tree_add_item(ptr noundef %16, i32 noundef %17, ptr noundef %18, i32 noundef %19, i32 noundef 1, i32 noundef %20)
  %22 = load ptr, ptr %7, align 8
  %23 = load i32, ptr @hf_cigi3_environmental_region_control_merge_aerosol, align 4
  %24 = load ptr, ptr %5, align 8
  %25 = load i32, ptr %9, align 4
  %26 = load i32, ptr @cigi_byte_order, align 4
  %27 = call ptr @proto_tree_add_item(ptr noundef %22, i32 noundef %23, ptr noundef %24, i32 noundef %25, i32 noundef 1, i32 noundef %26)
  %28 = load ptr, ptr %7, align 8
  %29 = load i32, ptr @hf_cigi3_environmental_region_control_merge_maritime, align 4
  %30 = load ptr, ptr %5, align 8
  %31 = load i32, ptr %9, align 4
  %32 = load i32, ptr @cigi_byte_order, align 4
  %33 = call ptr @proto_tree_add_item(ptr noundef %28, i32 noundef %29, ptr noundef %30, i32 noundef %31, i32 noundef 1, i32 noundef %32)
  %34 = load ptr, ptr %7, align 8
  %35 = load i32, ptr @hf_cigi3_environmental_region_control_merge_terrestrial, align 4
  %36 = load ptr, ptr %5, align 8
  %37 = load i32, ptr %9, align 4
  %38 = load i32, ptr @cigi_byte_order, align 4
  %39 = call ptr @proto_tree_add_item(ptr noundef %34, i32 noundef %35, ptr noundef %36, i32 noundef %37, i32 noundef 1, i32 noundef %38)
  %40 = load i32, ptr %9, align 4
  %41 = add i32 %40, 2
  store i32 %41, ptr %9, align 4
  %42 = load ptr, ptr %7, align 8
  %43 = load i32, ptr @hf_cigi3_environmental_region_control_region_id, align 4
  %44 = load ptr, ptr %5, align 8
  %45 = load i32, ptr %9, align 4
  %46 = load i32, ptr @cigi_byte_order, align 4
  %47 = call ptr @proto_tree_add_item(ptr noundef %42, i32 noundef %43, ptr noundef %44, i32 noundef %45, i32 noundef 2, i32 noundef %46)
  %48 = load i32, ptr %9, align 4
  %49 = add i32 %48, 2
  store i32 %49, ptr %9, align 4
  %50 = load ptr, ptr %7, align 8
  %51 = load i32, ptr @hf_cigi3_environmental_region_control_lat, align 4
  %52 = load ptr, ptr %5, align 8
  %53 = load i32, ptr %9, align 4
  %54 = load i32, ptr @cigi_byte_order, align 4
  %55 = call ptr @proto_tree_add_item(ptr noundef %50, i32 noundef %51, ptr noundef %52, i32 noundef %53, i32 noundef 8, i32 noundef %54)
  %56 = load i32, ptr %9, align 4
  %57 = add i32 %56, 8
  store i32 %57, ptr %9, align 4
  %58 = load ptr, ptr %7, align 8
  %59 = load i32, ptr @hf_cigi3_environmental_region_control_lon, align 4
  %60 = load ptr, ptr %5, align 8
  %61 = load i32, ptr %9, align 4
  %62 = load i32, ptr @cigi_byte_order, align 4
  %63 = call ptr @proto_tree_add_item(ptr noundef %58, i32 noundef %59, ptr noundef %60, i32 noundef %61, i32 noundef 8, i32 noundef %62)
  %64 = load i32, ptr %9, align 4
  %65 = add i32 %64, 8
  store i32 %65, ptr %9, align 4
  %66 = load ptr, ptr %7, align 8
  %67 = load i32, ptr @hf_cigi3_environmental_region_control_size_x, align 4
  %68 = load ptr, ptr %5, align 8
  %69 = load i32, ptr %9, align 4
  %70 = load i32, ptr @cigi_byte_order, align 4
  %71 = call ptr @proto_tree_add_item(ptr noundef %66, i32 noundef %67, ptr noundef %68, i32 noundef %69, i32 noundef 4, i32 noundef %70)
  %72 = load i32, ptr %9, align 4
  %73 = add i32 %72, 4
  store i32 %73, ptr %9, align 4
  %74 = load ptr, ptr %7, align 8
  %75 = load i32, ptr @hf_cigi3_environmental_region_control_size_y, align 4
  %76 = load ptr, ptr %5, align 8
  %77 = load i32, ptr %9, align 4
  %78 = load i32, ptr @cigi_byte_order, align 4
  %79 = call ptr @proto_tree_add_item(ptr noundef %74, i32 noundef %75, ptr noundef %76, i32 noundef %77, i32 noundef 4, i32 noundef %78)
  %80 = load i32, ptr %9, align 4
  %81 = add i32 %80, 4
  store i32 %81, ptr %9, align 4
  %82 = load ptr, ptr %7, align 8
  %83 = load i32, ptr @hf_cigi3_environmental_region_control_corner_radius, align 4
  %84 = load ptr, ptr %5, align 8
  %85 = load i32, ptr %9, align 4
  %86 = load i32, ptr @cigi_byte_order, align 4
  %87 = call ptr @proto_tree_add_item(ptr noundef %82, i32 noundef %83, ptr noundef %84, i32 noundef %85, i32 noundef 4, i32 noundef %86)
  %88 = load i32, ptr %9, align 4
  %89 = add i32 %88, 4
  store i32 %89, ptr %9, align 4
  %90 = load ptr, ptr %7, align 8
  %91 = load i32, ptr @hf_cigi3_environmental_region_control_rotation, align 4
  %92 = load ptr, ptr %5, align 8
  %93 = load i32, ptr %9, align 4
  %94 = load i32, ptr @cigi_byte_order, align 4
  %95 = call ptr @proto_tree_add_item(ptr noundef %90, i32 noundef %91, ptr noundef %92, i32 noundef %93, i32 noundef 4, i32 noundef %94)
  %96 = load i32, ptr %9, align 4
  %97 = add i32 %96, 4
  store i32 %97, ptr %9, align 4
  %98 = load ptr, ptr %7, align 8
  %99 = load i32, ptr @hf_cigi3_environmental_region_control_transition_perimeter, align 4
  %100 = load ptr, ptr %5, align 8
  %101 = load i32, ptr %9, align 4
  %102 = load i32, ptr @cigi_byte_order, align 4
  %103 = call ptr @proto_tree_add_item(ptr noundef %98, i32 noundef %99, ptr noundef %100, i32 noundef %101, i32 noundef 4, i32 noundef %102)
  %104 = load i32, ptr %9, align 4
  %105 = add i32 %104, 8
  store i32 %105, ptr %9, align 4
  %106 = load i32, ptr %9, align 4
  call void @llvm.lifetime.end.p0(i64 4, ptr %9) #5
  ret i32 %106
}